; Function Attrs: nofree norecurse nosync nounwind memory(argmem: readwrite) uwtable
define internal void @h264_h_loop_filter_chroma422_mbaff_intra_12_c(ptr noundef captures(none) %0, i64 noundef %1, i32 noundef %2, i32 noundef %3) #1 {
  %5 = ashr i64 %1, 1
  %6 = shl i32 %2, 4
  %7 = shl i32 %3, 4
  br label %8

8:                                                ; preds = %4, %44
  %.0.i4 = phi i32 [ 0, %4 ], [ %46, %44 ]
  %.046.i3 = phi ptr [ %0, %4 ], [ %45, %44 ]
  %9 = getelementptr inbounds i8, ptr %.046.i3, i64 -2
  %10 = load i16, ptr %9, align 2, !tbaa !37
  %11 = zext i16 %10 to i32
  %12 = getelementptr inbounds i8, ptr %.046.i3, i64 -4
  %13 = load i16, ptr %12, align 2, !tbaa !37
  %14 = zext i16 %13 to i32
  %15 = load i16, ptr %.046.i3, align 2, !tbaa !37
  %16 = zext i16 %15 to i32
  %17 = getelementptr inbounds nuw i8, ptr %.046.i3, i64 2
  %18 = load i16, ptr %17, align 2, !tbaa !37
  %19 = zext i16 %18 to i32
  %20 = sub nsw i32 %11, %16
  %21 = tail call i32 @llvm.abs.i32(i32 %20, i1 true)
  %22 = icmp slt i32 %21, %6
  br i1 %22, label %23, label %44

23:                                               ; preds = %8
  %24 = sub nsw i32 %14, %11
  %25 = tail call i32 @llvm.abs.i32(i32 %24, i1 true)
  %26 = icmp slt i32 %25, %7
  br i1 %26, label %27, label %44

27:                                               ; preds = %23
  %28 = sub nsw i32 %19, %16
  %29 = tail call i32 @llvm.abs.i32(i32 %28, i1 true)
  %30 = icmp samesign ult i32 %29, %7
  br i1 %30, label %31, label %44

31:                                               ; preds = %27
  %32 = shl nuw nsw i32 %14, 1
  %33 = add nuw nsw i32 %11, 2
  %34 = add nuw nsw i32 %33, %32
  %35 = add nuw nsw i32 %34, %19
  %36 = lshr i32 %35, 2
  %37 = trunc nuw i32 %36 to i16
  store i16 %37, ptr %9, align 2, !tbaa !37
  %38 = shl nuw nsw i32 %19, 1
  %39 = add nuw nsw i32 %14, 2
  %40 = add nuw nsw i32 %39, %16
  %41 = add nuw nsw i32 %40, %38
  %42 = lshr i32 %41, 2
  %43 = trunc nuw i32 %42 to i16
  store i16 %43, ptr %.046.i3, align 2, !tbaa !37
  br label %44

44:                                               ; preds = %31, %27, %23, %8
  %45 = getelementptr inbounds i16, ptr %.046.i3, i64 %5
  %46 = add nuw nsw i32 %.0.i4, 1
  %exitcond.not = icmp eq i32 %46, 8
  br i1 %exitcond.not, label %h264_loop_filter_chroma_intra_12_c.exit, label %8, !llvm.loop !86

h264_loop_filter_chroma_intra_12_c.exit:          ; preds = %44
  ret void
}